; Function Attrs: mustprogress uwtable
define void @_ZN3nix10LocalStore9findRootsB5cxx11Eb(ptr dead_on_unwind noalias nonnull writable sret(%"class.std::unordered_map") align 8 %0, ptr noundef nonnull align 8 dereferenceable(504) %1, i1 noundef zeroext %2) unnamed_addr #5 align 2 personality ptr @__gxx_personality_v0 {
  %4 = getelementptr inbounds i8, ptr %0, i64 48
  store ptr %4, ptr %0, align 8
  %5 = getelementptr inbounds i8, ptr %0, i64 8
  store i64 1, ptr %5, align 8
  %6 = getelementptr inbounds i8, ptr %0, i64 16
  %7 = getelementptr inbounds i8, ptr %0, i64 32
  tail call void @llvm.memset.p0.i64(ptr noundef nonnull align 8 dereferenceable(16) %6, i8 0, i64 16, i1 false)
  store float 1.000000e+00, ptr %7, align 8
  %8 = getelementptr inbounds i8, ptr %0, i64 40
  tail call void @llvm.memset.p0.i64(ptr noundef nonnull align 8 dereferenceable(16) %8, i8 0, i64 16, i1 false)
  invoke void @_ZN3nix10LocalStore15findRootsNoTempERSt13unordered_mapINS_9StorePathESt13unordered_setINSt7__cxx1112basic_stringIcSt11char_traitsIcESaIcEEESt4hashIS9_ESt8equal_toIS9_ESaIS9_EESA_IS2_ESC_IS2_ESaISt4pairIKS2_SF_EEEb(ptr noundef nonnull align 8 dereferenceable(504) %1, ptr noundef nonnull align 8 dereferenceable(56) %0, i1 noundef zeroext %2)
          to label %9 unwind label %10

9:                                                ; preds = %3
  invoke void @_ZN3nix10LocalStore13findTempRootsERSt13unordered_mapINS_9StorePathESt13unordered_setINSt7__cxx1112basic_stringIcSt11char_traitsIcESaIcEEESt4hashIS9_ESt8equal_toIS9_ESaIS9_EESA_IS2_ESC_IS2_ESaISt4pairIKS2_SF_EEEb(ptr noundef nonnull align 8 dereferenceable(504) %1, ptr noundef nonnull align 8 dereferenceable(56) %0, i1 noundef zeroext %2)
          to label %12 unwind label %10

10:                                               ; preds = %9, %3
  %11 = landingpad { ptr, i32 }
          cleanup
  tail call void @_ZNSt13unordered_mapIN3nix9StorePathESt13unordered_setINSt7__cxx1112basic_stringIcSt11char_traitsIcESaIcEEESt4hashIS8_ESt8equal_toIS8_ESaIS8_EES9_IS1_ESB_IS1_ESaISt4pairIKS1_SE_EEED2Ev(ptr noundef nonnull align 8 dereferenceable(56) %0) #32
  resume { ptr, i32 } %11

12:                                               ; preds = %9
  ret void
}